target datalayout = "e-m:e-p270:32:32-p271:32:32-p272:64:64-i64:64-i128:128-f80:128-n8:16:32:64-S128"
target triple = "x86_64-pc-linux-gnu"

; Function Attrs: inlinehint nounwind uwtable
define internal i64 @PointerGetDatum(ptr noundef %0) #3 {
  %2 = alloca ptr, align 8
  store ptr %0, ptr %2, align 8
  %3 = load ptr, ptr %2, align 8
  %4 = ptrtoint ptr %3 to i64
  ret i64 %4
}

; Function Attrs: nounwind uwtable
define dso_local ptr @dsa_create_ext(i32 noundef %0, i64 noundef %1, i64 noundef %2) #0 {
  %4 = alloca i32, align 4
  %5 = alloca i64, align 8
  %6 = alloca i64, align 8
  %7 = alloca ptr, align 8
  %8 = alloca ptr, align 8
  store i32 %0, ptr %4, align 4
  store i64 %1, ptr %5, align 8
  store i64 %2, ptr %6, align 8
  call void @llvm.lifetime.start.p0(i64 8, ptr %7) #8
  call void @llvm.lifetime.start.p0(i64 8, ptr %8) #8
  %9 = load i64, ptr %5, align 8
  %10 = call ptr @dsm_create(i64 noundef %9, i32 noundef 0)
  store ptr %10, ptr %7, align 8
  %11 = load ptr, ptr %7, align 8
  call void @dsm_pin_segment(ptr noundef %11)
  %12 = load ptr, ptr %7, align 8
  %13 = call ptr @dsm_segment_address(ptr noundef %12)
  %14 = load i64, ptr %5, align 8
  %15 = load i32, ptr %4, align 4
  %16 = load ptr, ptr %7, align 8
  %17 = call i32 @dsm_segment_handle(ptr noundef %16)
  %18 = load ptr, ptr %7, align 8
  %19 = load i64, ptr %5, align 8
  %20 = load i64, ptr %6, align 8
  %21 = call ptr @create_internal(ptr noundef %13, i64 noundef %14, i32 noundef %15, i32 noundef %17, ptr noundef %18, i64 noundef %19, i64 noundef %20)
  store ptr %21, ptr %8, align 8
  %22 = load ptr, ptr %7, align 8
  %23 = load ptr, ptr %7, align 8
  %24 = call ptr @dsm_segment_address(ptr noundef %23)
  %25 = call i64 @PointerGetDatum(ptr noundef %24)
  call void @on_dsm_detach(ptr noundef %22, ptr noundef @dsa_on_dsm_detach_release_in_place, i64 noundef %25)
  %26 = load ptr, ptr %8, align 8
  call void @llvm.lifetime.end.p0(i64 8, ptr %8) #8
  call void @llvm.lifetime.end.p0(i64 8, ptr %7) #8
  ret ptr %26
}