; Function Attrs: nounwind uwtable
define dso_local noundef ptr @dsa_create_ext(i32 noundef %0, i64 noundef %1, i64 noundef %2) local_unnamed_addr #0 {
  %4 = tail call ptr @dsm_create(i64 noundef %1, i32 noundef 0) #11
  tail call void @dsm_pin_segment(ptr noundef %4) #11
  %5 = tail call ptr @dsm_segment_address(ptr noundef %4) #11
  %6 = tail call i32 @dsm_segment_handle(ptr noundef %4) #11
  %7 = tail call fastcc ptr @create_internal(ptr noundef %5, i64 noundef %1, i32 noundef %0, i32 noundef %6, ptr noundef %4, i64 noundef %1, i64 noundef %2)
  %8 = tail call ptr @dsm_segment_address(ptr noundef %4) #11
  %9 = ptrtoint ptr %8 to i64
  tail call void @on_dsm_detach(ptr noundef %4, ptr noundef nonnull @dsa_on_dsm_detach_release_in_place, i64 noundef %9) #11
  ret ptr %7
}